target datalayout = "e-m:e-p270:32:32-p271:32:32-p272:64:64-i64:64-i128:128-f80:128-n8:16:32:64-S128"
target triple = "x86_64-unknown-linux-gnu"

@.str.1 = private unnamed_addr constant [26 x i8] c"<GradingPrimaryTransform \00", align 1
@.str.2 = private unnamed_addr constant [11 x i8] c"direction=\00", align 1
@.str.3 = private unnamed_addr constant [9 x i8] c", style=\00", align 1
@.str.4 = private unnamed_addr constant [10 x i8] c", values=\00", align 1
@.str.5 = private unnamed_addr constant [10 x i8] c", dynamic\00", align 1
@.str.6 = private unnamed_addr constant [2 x i8] c">\00", align 1

; Function Attrs: mustprogress nounwind uwtable
define noundef nonnull align 8 dereferenceable(8) ptr @_ZN19OpenColorIO_v2_4devlsERSoRKNS_23GradingPrimaryTransformE(ptr noundef nonnull align 8 dereferenceable(8) %os, ptr noundef nonnull align 8 dereferenceable(8) %t) #3 personality ptr @__gxx_personality_v0 {
entry:
  %os.addr = alloca ptr, align 8
  %t.addr = alloca ptr, align 8
  store ptr %os, ptr %os.addr, align 8
  store ptr %t, ptr %t.addr, align 8
  %0 = load ptr, ptr %os.addr, align 8
  %call = invoke noundef nonnull align 8 dereferenceable(8) ptr @_ZStlsISt11char_traitsIcEERSt13basic_ostreamIcT_ES5_PKc(ptr noundef nonnull align 8 dereferenceable(8) %0, ptr noundef @.str.1)
          to label %invoke.cont unwind label %terminate.lpad

invoke.cont:                                      ; preds = %entry
  %1 = load ptr, ptr %os.addr, align 8
  %call2 = invoke noundef nonnull align 8 dereferenceable(8) ptr @_ZStlsISt11char_traitsIcEERSt13basic_ostreamIcT_ES5_PKc(ptr noundef nonnull align 8 dereferenceable(8) %1, ptr noundef @.str.2)
          to label %invoke.cont1 unwind label %terminate.lpad

invoke.cont1:                                     ; preds = %invoke.cont
  %2 = load ptr, ptr %t.addr, align 8
  %vtable = load ptr, ptr %2, align 8
  %vfn = getelementptr inbounds ptr, ptr %vtable, i64 1
  %3 = load ptr, ptr %vfn, align 8
  %call3 = call noundef i32 %3(ptr noundef nonnull align 8 dereferenceable(8) %2) #13
  %call5 = invoke noundef ptr @_ZN19OpenColorIO_v2_4dev26TransformDirectionToStringENS_18TransformDirectionE(i32 noundef %call3)
          to label %invoke.cont4 unwind label %terminate.lpad

invoke.cont4:                                     ; preds = %invoke.cont1
  %call7 = invoke noundef nonnull align 8 dereferenceable(8) ptr @_ZStlsISt11char_traitsIcEERSt13basic_ostreamIcT_ES5_PKc(ptr noundef nonnull align 8 dereferenceable(8) %call2, ptr noundef %call5)
          to label %invoke.cont6 unwind label %terminate.lpad

invoke.cont6:                                     ; preds = %invoke.cont4
  %4 = load ptr, ptr %os.addr, align 8
  %call9 = invoke noundef nonnull align 8 dereferenceable(8) ptr @_ZStlsISt11char_traitsIcEERSt13basic_ostreamIcT_ES5_PKc(ptr noundef nonnull align 8 dereferenceable(8) %4, ptr noundef @.str.3)
          to label %invoke.cont8 unwind label %terminate.lpad

invoke.cont8:                                     ; preds = %invoke.cont6
  %5 = load ptr, ptr %t.addr, align 8
  %vtable10 = load ptr, ptr %5, align 8
  %vfn11 = getelementptr inbounds ptr, ptr %vtable10, i64 10
  %6 = load ptr, ptr %vfn11, align 8
  %call12 = call noundef i32 %6(ptr noundef nonnull align 8 dereferenceable(8) %5) #13
  %call14 = invoke noundef ptr @_ZN19OpenColorIO_v2_4dev20GradingStyleToStringENS_12GradingStyleE(i32 noundef %call12)
          to label %invoke.cont13 unwind label %terminate.lpad

invoke.cont13:                                    ; preds = %invoke.cont8
  %call16 = invoke noundef nonnull align 8 dereferenceable(8) ptr @_ZStlsISt11char_traitsIcEERSt13basic_ostreamIcT_ES5_PKc(ptr noundef nonnull align 8 dereferenceable(8) %call9, ptr noundef %call14)
          to label %invoke.cont15 unwind label %terminate.lpad

invoke.cont15:                                    ; preds = %invoke.cont13
  %7 = load ptr, ptr %os.addr, align 8
  %call18 = invoke noundef nonnull align 8 dereferenceable(8) ptr @_ZStlsISt11char_traitsIcEERSt13basic_ostreamIcT_ES5_PKc(ptr noundef nonnull align 8 dereferenceable(8) %7, ptr noundef @.str.4)
          to label %invoke.cont17 unwind label %terminate.lpad

invoke.cont17:                                    ; preds = %invoke.cont15
  %8 = load ptr, ptr %t.addr, align 8
  %vtable19 = load ptr, ptr %8, align 8
  %vfn20 = getelementptr inbounds ptr, ptr %vtable19, i64 12
  %9 = load ptr, ptr %vfn20, align 8
  %call22 = invoke noundef nonnull align 8 dereferenceable(272) ptr %9(ptr noundef nonnull align 8 dereferenceable(8) %8)
          to label %invoke.cont21 unwind label %terminate.lpad

invoke.cont21:                                    ; preds = %invoke.cont17
  %call24 = invoke noundef nonnull align 8 dereferenceable(8) ptr @_ZN19OpenColorIO_v2_4devlsERSoRKNS_14GradingPrimaryE(ptr noundef nonnull align 8 dereferenceable(8) %call18, ptr noundef nonnull align 8 dereferenceable(272) %call22)
          to label %invoke.cont23 unwind label %terminate.lpad

invoke.cont23:                                    ; preds = %invoke.cont21
  %10 = load ptr, ptr %t.addr, align 8
  %vtable25 = load ptr, ptr %10, align 8
  %vfn26 = getelementptr inbounds ptr, ptr %vtable25, i64 14
  %11 = load ptr, ptr %vfn26, align 8
  %call27 = call noundef zeroext i1 %11(ptr noundef nonnull align 8 dereferenceable(8) %10) #13
  br i1 %call27, label %if.then, label %if.end

if.then:                                          ; preds = %invoke.cont23
  %12 = load ptr, ptr %os.addr, align 8
  %call29 = invoke noundef nonnull align 8 dereferenceable(8) ptr @_ZStlsISt11char_traitsIcEERSt13basic_ostreamIcT_ES5_PKc(ptr noundef nonnull align 8 dereferenceable(8) %12, ptr noundef @.str.5)
          to label %invoke.cont28 unwind label %terminate.lpad

invoke.cont28:                                    ; preds = %if.then
  br label %if.end

if.end:                                           ; preds = %invoke.cont28, %invoke.cont23
  %13 = load ptr, ptr %os.addr, align 8
  %call31 = invoke noundef nonnull align 8 dereferenceable(8) ptr @_ZStlsISt11char_traitsIcEERSt13basic_ostreamIcT_ES5_PKc(ptr noundef nonnull align 8 dereferenceable(8) %13, ptr noundef @.str.6)
          to label %invoke.cont30 unwind label %terminate.lpad

invoke.cont30:                                    ; preds = %if.end
  %14 = load ptr, ptr %os.addr, align 8
  ret ptr %14

terminate.lpad:                                   ; preds = %if.end, %if.then, %invoke.cont21, %invoke.cont17, %invoke.cont15, %invoke.cont13, %invoke.cont8, %invoke.cont6, %invoke.cont4, %invoke.cont1, %invoke.cont, %entry
  %15 = landingpad { ptr, i32 }
          catch ptr null
  %16 = extractvalue { ptr, i32 } %15, 0
  call void @__clang_call_terminate(ptr %16) #15
  unreachable
}