; Function Attrs: mustprogress nounwind uwtable
define noundef nonnull align 8 dereferenceable(8) ptr @_ZN19OpenColorIO_v2_4devlsERSoRKNS_23GradingPrimaryTransformE(ptr noundef nonnull returned align 8 dereferenceable(8) %os, ptr noundef nonnull align 8 dereferenceable(8) %t) local_unnamed_addr #3 personality ptr @__gxx_personality_v0 {
entry:
  %call = invoke noundef nonnull align 8 dereferenceable(8) ptr @_ZStlsISt11char_traitsIcEERSt13basic_ostreamIcT_ES5_PKc(ptr noundef nonnull align 8 dereferenceable(8) %os, ptr noundef nonnull @.str.1)
          to label %invoke.cont unwind label %terminate.lpad

invoke.cont:                                      ; preds = %entry
  %call2 = invoke noundef nonnull align 8 dereferenceable(8) ptr @_ZStlsISt11char_traitsIcEERSt13basic_ostreamIcT_ES5_PKc(ptr noundef nonnull align 8 dereferenceable(8) %os, ptr noundef nonnull @.str.2)
          to label %invoke.cont1 unwind label %terminate.lpad

invoke.cont1:                                     ; preds = %invoke.cont
  %vtable = load ptr, ptr %t, align 8
  %vfn = getelementptr inbounds i8, ptr %vtable, i64 8
  %0 = load ptr, ptr %vfn, align 8
  %call3 = tail call noundef i32 %0(ptr noundef nonnull align 8 dereferenceable(8) %t) #13
  %call5 = invoke noundef ptr @_ZN19OpenColorIO_v2_4dev26TransformDirectionToStringENS_18TransformDirectionE(i32 noundef %call3)
          to label %invoke.cont4 unwind label %terminate.lpad

invoke.cont4:                                     ; preds = %invoke.cont1
  %call7 = invoke noundef nonnull align 8 dereferenceable(8) ptr @_ZStlsISt11char_traitsIcEERSt13basic_ostreamIcT_ES5_PKc(ptr noundef nonnull align 8 dereferenceable(8) %call2, ptr noundef %call5)
          to label %invoke.cont6 unwind label %terminate.lpad

invoke.cont6:                                     ; preds = %invoke.cont4
  %call9 = invoke noundef nonnull align 8 dereferenceable(8) ptr @_ZStlsISt11char_traitsIcEERSt13basic_ostreamIcT_ES5_PKc(ptr noundef nonnull align 8 dereferenceable(8) %os, ptr noundef nonnull @.str.3)
          to label %invoke.cont8 unwind label %terminate.lpad

invoke.cont8:                                     ; preds = %invoke.cont6
  %vtable10 = load ptr, ptr %t, align 8
  %vfn11 = getelementptr inbounds i8, ptr %vtable10, i64 80
  %1 = load ptr, ptr %vfn11, align 8
  %call12 = tail call noundef i32 %1(ptr noundef nonnull align 8 dereferenceable(8) %t) #13
  %call14 = invoke noundef ptr @_ZN19OpenColorIO_v2_4dev20GradingStyleToStringENS_12GradingStyleE(i32 noundef %call12)
          to label %invoke.cont13 unwind label %terminate.lpad

invoke.cont13:                                    ; preds = %invoke.cont8
  %call16 = invoke noundef nonnull align 8 dereferenceable(8) ptr @_ZStlsISt11char_traitsIcEERSt13basic_ostreamIcT_ES5_PKc(ptr noundef nonnull align 8 dereferenceable(8) %call9, ptr noundef %call14)
          to label %invoke.cont15 unwind label %terminate.lpad

invoke.cont15:                                    ; preds = %invoke.cont13
  %call18 = invoke noundef nonnull align 8 dereferenceable(8) ptr @_ZStlsISt11char_traitsIcEERSt13basic_ostreamIcT_ES5_PKc(ptr noundef nonnull align 8 dereferenceable(8) %os, ptr noundef nonnull @.str.4)
          to label %invoke.cont17 unwind label %terminate.lpad

invoke.cont17:                                    ; preds = %invoke.cont15
  %vtable19 = load ptr, ptr %t, align 8
  %vfn20 = getelementptr inbounds i8, ptr %vtable19, i64 96
  %2 = load ptr, ptr %vfn20, align 8
  %call22 = invoke noundef nonnull align 8 dereferenceable(272) ptr %2(ptr noundef nonnull align 8 dereferenceable(8) %t)
          to label %invoke.cont21 unwind label %terminate.lpad

invoke.cont21:                                    ; preds = %invoke.cont17
  %call24 = invoke noundef nonnull align 8 dereferenceable(8) ptr @_ZN19OpenColorIO_v2_4devlsERSoRKNS_14GradingPrimaryE(ptr noundef nonnull align 8 dereferenceable(8) %call18, ptr noundef nonnull align 8 dereferenceable(272) %call22)
          to label %invoke.cont23 unwind label %terminate.lpad

invoke.cont23:                                    ; preds = %invoke.cont21
  %vtable25 = load ptr, ptr %t, align 8
  %vfn26 = getelementptr inbounds i8, ptr %vtable25, i64 112
  %3 = load ptr, ptr %vfn26, align 8
  %call27 = tail call noundef zeroext i1 %3(ptr noundef nonnull align 8 dereferenceable(8) %t) #13
  br i1 %call27, label %if.then, label %if.end

if.then:                                          ; preds = %invoke.cont23
  %call29 = invoke noundef nonnull align 8 dereferenceable(8) ptr @_ZStlsISt11char_traitsIcEERSt13basic_ostreamIcT_ES5_PKc(ptr noundef nonnull align 8 dereferenceable(8) %os, ptr noundef nonnull @.str.5)
          to label %if.end unwind label %terminate.lpad

if.end:                                           ; preds = %if.then, %invoke.cont23
  %call31 = invoke noundef nonnull align 8 dereferenceable(8) ptr @_ZStlsISt11char_traitsIcEERSt13basic_ostreamIcT_ES5_PKc(ptr noundef nonnull align 8 dereferenceable(8) %os, ptr noundef nonnull @.str.6)
          to label %invoke.cont30 unwind label %terminate.lpad

invoke.cont30:                                    ; preds = %if.end
  ret ptr %os

terminate.lpad:                                   ; preds = %if.end, %if.then, %invoke.cont21, %invoke.cont17, %invoke.cont15, %invoke.cont13, %invoke.cont8, %invoke.cont6, %invoke.cont4, %invoke.cont1, %invoke.cont, %entry
  %4 = landingpad { ptr, i32 }
          catch ptr null
  %5 = extractvalue { ptr, i32 } %4, 0
  tail call void @__clang_call_terminate(ptr %5) #15
  unreachable
}